target datalayout = "e-m:e-p270:32:32-p271:32:32-p272:64:64-i64:64-i128:128-f80:128-n8:16:32:64-S128"
target triple = "x86_64-unknown-linux-gnu"

%"class.std::unique_ptr.10" = type { %"struct.std::__uniq_ptr_data.11" }
%"struct.std::__uniq_ptr_data.11" = type { %"class.std::__uniq_ptr_impl.12" }
%"class.std::__uniq_ptr_impl.12" = type { %"class.std::tuple.13" }
%"class.std::tuple.13" = type { %"struct.std::_Tuple_impl.14" }
%"struct.std::_Tuple_impl.14" = type { %"struct.std::_Head_base.17" }
%"struct.std::_Head_base.17" = type { ptr }
%"struct.hermes::CodeGenerationSettings" = type { i8, i8, i8, i8, i8, i8, i8, i8, i8, i8, [6 x i8], %"struct.hermes::CodeGenerationSettings_DumpSettings", %"struct.hermes::CodeGenerationSettings_DumpSettings", %"class.llvh::SmallDenseSet" }
%"struct.hermes::CodeGenerationSettings_DumpSettings" = type { i8, [7 x i8], %"class.llvh::SmallDenseSet", %"class.llvh::SmallDenseSet" }
%"class.llvh::SmallDenseSet" = type { %"class.llvh::detail::DenseSetImpl" }
%"class.llvh::detail::DenseSetImpl" = type { %"class.llvh::SmallDenseMap" }
%"class.llvh::SmallDenseMap" = type { i32, i32, %"struct.llvh::AlignedCharArrayUnion" }
%"struct.llvh::AlignedCharArrayUnion" = type { %"struct.llvh::AlignedCharArray" }
%"struct.llvh::AlignedCharArray" = type { [64 x i8] }
%"class.llvh::StringRef" = type { ptr, i64 }
%"class.hermes::Pass" = type { ptr, i32, %"class.llvh::StringRef" }
%"class.hermes::(anonymous namespace)::DumpModule" = type { %"class.hermes::ModulePass", ptr, ptr, %"class.std::unique_ptr.10" }
%"class.hermes::ModulePass" = type { %"class.hermes::Pass" }

@.str.3 = private unnamed_addr constant [23 x i8] c"*** BEFORE Module pass\00", align 1
@.str.4 = private unnamed_addr constant [22 x i8] c"*** AFTER Module pass\00", align 1

; Function Attrs: mustprogress nounwind uwtable
define linkonce_odr hidden noundef nonnull align 8 dereferenceable(8) ptr @_ZNSt10_Head_baseILm0EPN6hermes10ModulePassELb0EE7_M_headERKS3_(ptr noundef nonnull align 8 dereferenceable(8) %__b) #0 comdat align 2 {
entry:
  %__b.addr = alloca ptr, align 8
  store ptr %__b, ptr %__b.addr, align 8
  %0 = load ptr, ptr %__b.addr, align 8
  %_M_head_impl = getelementptr inbounds %"struct.std::_Head_base.17", ptr %0, i32 0, i32 0
  ret ptr %_M_head_impl
}

; Function Attrs: mustprogress nounwind uwtable
define linkonce_odr hidden noundef nonnull align 8 dereferenceable(8) ptr @_ZNSt11_Tuple_implILm0EJPN6hermes10ModulePassESt14default_deleteIS1_EEE7_M_headERKS5_(ptr noundef nonnull align 8 dereferenceable(8) %__t) #0 comdat align 2 {
entry:
  %__t.addr = alloca ptr, align 8
  store ptr %__t, ptr %__t.addr, align 8
  %0 = load ptr, ptr %__t.addr, align 8
  %call = call noundef nonnull align 8 dereferenceable(8) ptr @_ZNSt10_Head_baseILm0EPN6hermes10ModulePassELb0EE7_M_headERKS3_(ptr noundef nonnull align 8 dereferenceable(8) %0) #11
  ret ptr %call
}

; Function Attrs: mustprogress nounwind uwtable
define linkonce_odr hidden noundef nonnull align 8 dereferenceable(8) ptr @_ZSt12__get_helperILm0EPN6hermes10ModulePassEJSt14default_deleteIS1_EEERKT0_RKSt11_Tuple_implIXT_EJS5_DpT1_EE(ptr noundef nonnull align 8 dereferenceable(8) %__t) #0 comdat {
entry:
  %__t.addr = alloca ptr, align 8
  store ptr %__t, ptr %__t.addr, align 8
  %0 = load ptr, ptr %__t.addr, align 8
  %call = call noundef nonnull align 8 dereferenceable(8) ptr @_ZNSt11_Tuple_implILm0EJPN6hermes10ModulePassESt14default_deleteIS1_EEE7_M_headERKS5_(ptr noundef nonnull align 8 dereferenceable(8) %0) #11
  ret ptr %call
}

; Function Attrs: mustprogress nounwind uwtable
define linkonce_odr hidden noundef nonnull align 8 dereferenceable(8) ptr @_ZSt3getILm0EJPN6hermes10ModulePassESt14default_deleteIS1_EEERKNSt13tuple_elementIXT_ESt5tupleIJDpT0_EEE4typeERKS9_(ptr noundef nonnull align 8 dereferenceable(8) %__t) #0 comdat {
entry:
  %__t.addr = alloca ptr, align 8
  store ptr %__t, ptr %__t.addr, align 8
  %0 = load ptr, ptr %__t.addr, align 8
  %call = call noundef nonnull align 8 dereferenceable(8) ptr @_ZSt12__get_helperILm0EPN6hermes10ModulePassEJSt14default_deleteIS1_EEERKT0_RKSt11_Tuple_implIXT_EJS5_DpT1_EE(ptr noundef nonnull align 8 dereferenceable(8) %0) #11
  ret ptr %call
}

; Function Attrs: mustprogress nounwind uwtable
define linkonce_odr hidden noundef ptr @_ZNKSt15__uniq_ptr_implIN6hermes10ModulePassESt14default_deleteIS1_EE6_M_ptrEv(ptr noundef nonnull align 8 dereferenceable(8) %this) #0 comdat align 2 {
entry:
  %this.addr = alloca ptr, align 8
  store ptr %this, ptr %this.addr, align 8
  %this1 = load ptr, ptr %this.addr, align 8
  %_M_t = getelementptr inbounds %"class.std::__uniq_ptr_impl.12", ptr %this1, i32 0, i32 0
  %call = call noundef nonnull align 8 dereferenceable(8) ptr @_ZSt3getILm0EJPN6hermes10ModulePassESt14default_deleteIS1_EEERKNSt13tuple_elementIXT_ESt5tupleIJDpT0_EEE4typeERKS9_(ptr noundef nonnull align 8 dereferenceable(8) %_M_t) #11
  %0 = load ptr, ptr %call, align 8
  ret ptr %0
}

; Function Attrs: mustprogress nounwind uwtable
define linkonce_odr hidden noundef ptr @_ZNKSt10unique_ptrIN6hermes10ModulePassESt14default_deleteIS1_EE3getEv(ptr noundef nonnull align 8 dereferenceable(8) %this) #0 comdat align 2 {
entry:
  %this.addr = alloca ptr, align 8
  store ptr %this, ptr %this.addr, align 8
  %this1 = load ptr, ptr %this.addr, align 8
  %_M_t = getelementptr inbounds %"class.std::unique_ptr.10", ptr %this1, i32 0, i32 0
  %call = call noundef ptr @_ZNKSt15__uniq_ptr_implIN6hermes10ModulePassESt14default_deleteIS1_EE6_M_ptrEv(ptr noundef nonnull align 8 dereferenceable(8) %_M_t) #11
  ret ptr %call
}

; Function Attrs: mustprogress nounwind uwtable
define linkonce_odr hidden noundef ptr @_ZNKSt10unique_ptrIN6hermes10ModulePassESt14default_deleteIS1_EEptEv(ptr noundef nonnull align 8 dereferenceable(8) %this) #0 comdat align 2 {
entry:
  %this.addr = alloca ptr, align 8
  store ptr %this, ptr %this.addr, align 8
  %this1 = load ptr, ptr %this.addr, align 8
  %call = call noundef ptr @_ZNKSt10unique_ptrIN6hermes10ModulePassESt14default_deleteIS1_EE3getEv(ptr noundef nonnull align 8 dereferenceable(8) %this1) #11
  ret ptr %call
}

; Function Attrs: mustprogress nounwind uwtable
define internal noundef zeroext i1 @_ZN6hermes12_GLOBAL__N_110DumpModule11runOnModuleEPNS_6ModuleE(ptr noundef nonnull align 8 dereferenceable(56) %this, ptr noundef %M) unnamed_addr #0 align 2 {
entry:
  %this.addr.i5 = alloca ptr, align 8
  %Str.addr.i6 = alloca ptr, align 8
  %this.addr.i = alloca ptr, align 8
  %Str.addr.i = alloca ptr, align 8
  %this.addr = alloca ptr, align 8
  %M.addr = alloca ptr, align 8
  %agg.tmp = alloca %"class.llvh::StringRef", align 8
  %result = alloca i8, align 1
  %agg.tmp4 = alloca %"class.llvh::StringRef", align 8
  store ptr %this, ptr %this.addr, align 8
  store ptr %M, ptr %M.addr, align 8
  %this1 = load ptr, ptr %this.addr, align 8
  %0 = load ptr, ptr %M.addr, align 8
  %cgSettings_ = getelementptr inbounds %"class.hermes::(anonymous namespace)::DumpModule", ptr %this1, i32 0, i32 1
  %1 = load ptr, ptr %cgSettings_, align 8
  %dumpBefore = getelementptr inbounds %"struct.hermes::CodeGenerationSettings", ptr %1, i32 0, i32 11
  store ptr %agg.tmp, ptr %this.addr.i, align 8
  store ptr @.str.3, ptr %Str.addr.i, align 8
  %this1.i = load ptr, ptr %this.addr.i, align 8
  %2 = load ptr, ptr %Str.addr.i, align 8
  store ptr %2, ptr %this1.i, align 8
  %Length.i = getelementptr inbounds %"class.llvh::StringRef", ptr %this1.i, i32 0, i32 1
  %3 = load ptr, ptr %Str.addr.i, align 8
  %tobool.i = icmp ne ptr %3, null
  br i1 %tobool.i, label %cond.true.i, label %cond.false.i

cond.true.i:                                      ; preds = %entry
  %4 = load ptr, ptr %Str.addr.i, align 8
  %call.i = call i64 @strlen(ptr noundef %4) #14
  br label %_ZN4llvh9StringRefC2EPKc.exit

cond.false.i:                                     ; preds = %entry
  br label %_ZN4llvh9StringRefC2EPKc.exit

_ZN4llvh9StringRefC2EPKc.exit:                    ; preds = %cond.false.i, %cond.true.i
  %cond.i = phi i64 [ %call.i, %cond.true.i ], [ 0, %cond.false.i ]
  store i64 %cond.i, ptr %Length.i, align 8
  %5 = getelementptr inbounds { ptr, i64 }, ptr %agg.tmp, i32 0, i32 0
  %6 = load ptr, ptr %5, align 8
  %7 = getelementptr inbounds { ptr, i64 }, ptr %agg.tmp, i32 0, i32 1
  %8 = load i64, ptr %7, align 8
  call void @_ZNK6hermes12_GLOBAL__N_110DumpModule13dumpIfEnabledEPNS_6ModuleERKNS_35CodeGenerationSettings_DumpSettingsEN4llvh9StringRefE(ptr noundef nonnull align 8 dereferenceable(56) %this1, ptr noundef %0, ptr noundef nonnull align 8 dereferenceable(152) %dumpBefore, ptr %6, i64 %8)
  %pass_ = getelementptr inbounds %"class.hermes::(anonymous namespace)::DumpModule", ptr %this1, i32 0, i32 3
  %call = call noundef ptr @_ZNKSt10unique_ptrIN6hermes10ModulePassESt14default_deleteIS1_EEptEv(ptr noundef nonnull align 8 dereferenceable(8) %pass_) #11
  %9 = load ptr, ptr %M.addr, align 8
  %vtable = load ptr, ptr %call, align 8
  %vfn = getelementptr inbounds ptr, ptr %vtable, i64 2
  %10 = load ptr, ptr %vfn, align 8
  %call2 = call noundef zeroext i1 %10(ptr noundef nonnull align 8 dereferenceable(32) %call, ptr noundef %9)
  %frombool = zext i1 %call2 to i8
  store i8 %frombool, ptr %result, align 1
  %11 = load ptr, ptr %M.addr, align 8
  %cgSettings_3 = getelementptr inbounds %"class.hermes::(anonymous namespace)::DumpModule", ptr %this1, i32 0, i32 1
  %12 = load ptr, ptr %cgSettings_3, align 8
  %dumpAfter = getelementptr inbounds %"struct.hermes::CodeGenerationSettings", ptr %12, i32 0, i32 12
  store ptr %agg.tmp4, ptr %this.addr.i5, align 8
  store ptr @.str.4, ptr %Str.addr.i6, align 8
  %this1.i7 = load ptr, ptr %this.addr.i5, align 8
  %13 = load ptr, ptr %Str.addr.i6, align 8
  store ptr %13, ptr %this1.i7, align 8
  %Length.i8 = getelementptr inbounds %"class.llvh::StringRef", ptr %this1.i7, i32 0, i32 1
  %14 = load ptr, ptr %Str.addr.i6, align 8
  %tobool.i9 = icmp ne ptr %14, null
  br i1 %tobool.i9, label %cond.true.i12, label %cond.false.i10

cond.true.i12:                                    ; preds = %_ZN4llvh9StringRefC2EPKc.exit
  %15 = load ptr, ptr %Str.addr.i6, align 8
  %call.i13 = call i64 @strlen(ptr noundef %15) #14
  br label %_ZN4llvh9StringRefC2EPKc.exit14

cond.false.i10:                                   ; preds = %_ZN4llvh9StringRefC2EPKc.exit
  br label %_ZN4llvh9StringRefC2EPKc.exit14

_ZN4llvh9StringRefC2EPKc.exit14:                  ; preds = %cond.false.i10, %cond.true.i12
  %cond.i11 = phi i64 [ %call.i13, %cond.true.i12 ], [ 0, %cond.false.i10 ]
  store i64 %cond.i11, ptr %Length.i8, align 8
  %16 = getelementptr inbounds { ptr, i64 }, ptr %agg.tmp4, i32 0, i32 0
  %17 = load ptr, ptr %16, align 8
  %18 = getelementptr inbounds { ptr, i64 }, ptr %agg.tmp4, i32 0, i32 1
  %19 = load i64, ptr %18, align 8
  call void @_ZNK6hermes12_GLOBAL__N_110DumpModule13dumpIfEnabledEPNS_6ModuleERKNS_35CodeGenerationSettings_DumpSettingsEN4llvh9StringRefE(ptr noundef nonnull align 8 dereferenceable(56) %this1, ptr noundef %11, ptr noundef nonnull align 8 dereferenceable(152) %dumpAfter, ptr %17, i64 %19)
  %20 = load i8, ptr %result, align 1
  %tobool = trunc i8 %20 to i1
  ret i1 %tobool
}