; Function Attrs: mustprogress nounwind uwtable
define internal noundef zeroext i1 @_ZN6hermes12_GLOBAL__N_110DumpModule11runOnModuleEPNS_6ModuleE(ptr nocapture noundef nonnull readonly align 8 dereferenceable(56) %this, ptr noundef %M) unnamed_addr #1 align 2 {
entry:
  %cgSettings_ = getelementptr inbounds i8, ptr %this, i64 32
  %0 = load ptr, ptr %cgSettings_, align 8
  %dumpBefore = getelementptr inbounds i8, ptr %0, i64 16
  tail call fastcc void @_ZNK6hermes12_GLOBAL__N_110DumpModule13dumpIfEnabledEPNS_6ModuleERKNS_35CodeGenerationSettings_DumpSettingsEN4llvh9StringRefE(ptr noundef nonnull align 8 dereferenceable(56) %this, ptr noundef %M, ptr noundef nonnull align 8 dereferenceable(152) %dumpBefore, ptr nonnull @.str.3, i64 22)
  %pass_ = getelementptr inbounds i8, ptr %this, i64 48
  %1 = load ptr, ptr %pass_, align 8
  %vtable = load ptr, ptr %1, align 8
  %vfn = getelementptr inbounds i8, ptr %vtable, i64 16
  %2 = load ptr, ptr %vfn, align 8
  %call2 = tail call noundef zeroext i1 %2(ptr noundef nonnull align 8 dereferenceable(32) %1, ptr noundef %M) #14
  %3 = load ptr, ptr %cgSettings_, align 8
  %dumpAfter = getelementptr inbounds i8, ptr %3, i64 168
  tail call fastcc void @_ZNK6hermes12_GLOBAL__N_110DumpModule13dumpIfEnabledEPNS_6ModuleERKNS_35CodeGenerationSettings_DumpSettingsEN4llvh9StringRefE(ptr noundef nonnull align 8 dereferenceable(56) %this, ptr noundef %M, ptr noundef nonnull align 8 dereferenceable(152) %dumpAfter, ptr nonnull @.str.4, i64 21)
  ret i1 %call2
}